(imatplotlib.font_manager
FontManager
p1
(dp2
S'afm_lookup_cache'
p3
(dp4
sS'ttflist'
p5
(lp6
ccopy_reg
_reconstructor
p7
(cmatplotlib.font_manager
FontEntry
p8
c__builtin__
object
p9
NtRp10
(dp11
S'style'
p12
S'normal'
p13
sS'name'
p14
S'cmb10'
p15
sS'weight'
p16
I400
sS'stretch'
p17
g13
sS'variant'
p18
g13
sS'fname'
p19
S'/usr/share/matplotlib/mpl-data/fonts/ttf/cmb10.ttf'
p20
sS'size'
p21
S'scalable'
p22
sbag7
(g8
g9
NtRp23
(dp24
g12
g13
sg14
S'cmex10'
p25
sg16
I400
sg17
g13
sg18
g13
sg19
S'/usr/share/matplotlib/mpl-data/fonts/ttf/cmex10.ttf'
p26
sg21
g22
sbag7
(g8
g9
NtRp27
(dp28
g12
S'italic'
p29
sg14
S'STIXNonUnicode'
p30
sg16
I400
sg17
g13
sg18
g13
sg19
S'/usr/share/matplotlib/mpl-data/fonts/ttf/STIXNonUniIta.ttf'
p31
sg21
g22
sbag7
(g8
g9
NtRp32
(dp33
g12
g13
sg14
S'STIXNonUnicode'
p34
sg16
I400
sg17
g13
sg18
g13
sg19
S'/usr/share/matplotlib/mpl-data/fonts/ttf/STIXNonUni.ttf'
p35
sg21
g22
sbag7
(g8
g9
NtRp36
(dp37
g12
g13
sg14
S'STIXSizeThreeSym'
p38
sg16
I400
sg17
g13
sg18
g13
sg19
S'/usr/share/matplotlib/mpl-data/fonts/ttf/STIXSizThreeSymReg.ttf'
p39
sg21
g22
sbag7
(g8
g9
NtRp40
(dp41
g12
g13
sg14
S'STIXSizeTwoSym'
p42
sg16
I700
sg17
g13
sg18
g13
sg19
S'/usr/share/matplotlib/mpl-data/fonts/ttf/STIXSizTwoSymBol.ttf'
p43
sg21
g22
sbag7
(g8
g9
NtRp44
(dp45
g12
g13
sg14
S'STIXSizeOneSym'
p46
sg16
I400
sg17
g13
sg18
g13
sg19
S'/usr/share/matplotlib/mpl-data/fonts/ttf/STIXSizOneSymReg.ttf'
p47
sg21
g22
sbag7
(g8
g9
NtRp48
(dp49
g12
g13
sg14
S'cmtt10'
p50
sg16
I400
sg17
g13
sg18
g13
sg19
S'/usr/share/matplotlib/mpl-data/fonts/ttf/cmtt10.ttf'
p51
sg21
g22
sbag7
(g8
g9
NtRp52
(dp53
g12
g13
sg14
S'STIXGeneral'
p54
sg16
I400
sg17
g13
sg18
g13
sg19
S'/usr/share/matplotlib/mpl-data/fonts/ttf/STIXGeneral.ttf'
p55
sg21
g22
sbag7
(g8
g9
NtRp56
(dp57
g12
g13
sg14
S'STIXSizeThreeSym'
p58
sg16
I700
sg17
g13
sg18
g13
sg19
S'/usr/share/matplotlib/mpl-data/fonts/ttf/STIXSizThreeSymBol.ttf'
p59
sg21
g22
sbag7
(g8
g9
NtRp60
(dp61
g12
g13
sg14
S'STIXSizeFiveSym'
p62
sg16
I400
sg17
g13
sg18
g13
sg19
S'/usr/share/matplotlib/mpl-data/fonts/ttf/STIXSizFiveSymReg.ttf'
p63
sg21
g22
sbag7
(g8
g9
NtRp64
(dp65
g12
g13
sg14
S'STIXSizeOneSym'
p66
sg16
I700
sg17
g13
sg18
g13
sg19
S'/usr/share/matplotlib/mpl-data/fonts/ttf/STIXSizOneSymBol.ttf'
p67
sg21
g22
sbag7
(g8
g9
NtRp68
(dp69
g12
g13
sg14
S'STIXGeneral'
p70
sg16
I700
sg17
g13
sg18
g13
sg19
S'/usr/share/matplotlib/mpl-data/fonts/ttf/STIXGeneralBol.ttf'
p71
sg21
g22
sbag7
(g8
g9
NtRp72
(dp73
g12
g13
sg14
S'cmr10'
p74
sg16
I400
sg17
g13
sg18
g13
sg19
S'/usr/share/matplotlib/mpl-data/fonts/ttf/cmr10.ttf'
p75
sg21
g22
sbag7
(g8
g9
NtRp76
(dp77
g12
g13
sg14
S'STIXSizeTwoSym'
p78
sg16
I400
sg17
g13
sg18
g13
sg19
S'/usr/share/matplotlib/mpl-data/fonts/ttf/STIXSizTwoSymReg.ttf'
p79
sg21
g22
sbag7
(g8
g9
NtRp80
(dp81
g12
g13
sg14
S'STIXSizeFourSym'
p82
sg16
I400
sg17
g13
sg18
g13
sg19
S'/usr/share/matplotlib/mpl-data/fonts/ttf/STIXSizFourSymReg.ttf'
p83
sg21
g22
sbag7
(g8
g9
NtRp84
(dp85
g12
g13
sg14
S'cmsy10'
p86
sg16
I400
sg17
g13
sg18
g13
sg19
S'/usr/share/matplotlib/mpl-data/fonts/ttf/cmsy10.ttf'
p87
sg21
g22
sbag7
(g8
g9
NtRp88
(dp89
g12
g29
sg14
S'STIXNonUnicode'
p90
sg16
I700
sg17
g13
sg18
g13
sg19
S'/usr/share/matplotlib/mpl-data/fonts/ttf/STIXNonUniBolIta.ttf'
p91
sg21
g22
sbag7
(g8
g9
NtRp92
(dp93
g12
g13
sg14
S'cmss10'
p94
sg16
I400
sg17
g13
sg18
g13
sg19
S'/usr/share/matplotlib/mpl-data/fonts/ttf/cmss10.ttf'
p95
sg21
g22
sbag7
(g8
g9
NtRp96
(dp97
g12
g13
sg14
S'STIXSizeFourSym'
p98
sg16
I700
sg17
g13
sg18
g13
sg19
S'/usr/share/matplotlib/mpl-data/fonts/ttf/STIXSizFourSymBol.ttf'
p99
sg21
g22
sbag7
(g8
g9
NtRp100
(dp101
g12
g29
sg14
S'STIXGeneral'
p102
sg16
I400
sg17
g13
sg18
g13
sg19
S'/usr/share/matplotlib/mpl-data/fonts/ttf/STIXGeneralItalic.ttf'
p103
sg21
g22
sbag7
(g8
g9
NtRp104
(dp105
g12
g13
sg14
S'cmmi10'
p106
sg16
I400
sg17
g13
sg18
g13
sg19
S'/usr/share/matplotlib/mpl-data/fonts/ttf/cmmi10.ttf'
p107
sg21
g22
sbag7
(g8
g9
NtRp108
(dp109
g12
g13
sg14
S'STIXNonUnicode'
p110
sg16
I700
sg17
g13
sg18
g13
sg19
S'/usr/share/matplotlib/mpl-data/fonts/ttf/STIXNonUniBol.ttf'
p111
sg21
g22
sbag7
(g8
g9
NtRp112
(dp113
g12
g29
sg14
S'STIXGeneral'
p114
sg16
I700
sg17
g13
sg18
g13
sg19
S'/usr/share/matplotlib/mpl-data/fonts/ttf/STIXGeneralBolIta.ttf'
p115
sg21
g22
sbag7
(g8
g9
NtRp116
(dp117
g12
g29
sg14
S'Liberation Serif'
p118
sg16
I700
sg17
g13
sg18
g13
sg19
S'/usr/share/fonts/truetype/liberation/LiberationSerif-BoldItalic.ttf'
p119
sg21
g22
sbag7
(g8
g9
NtRp120
(dp121
g12
g13
sg14
S'DejaVu Sans'
p122
sg16
I400
sg17
g13
sg18
g13
sg19
S'/usr/share/fonts/truetype/ttf-dejavu/DejaVuSans.ttf'
p123
sg21
g22
sbag7
(g8
g9
NtRp124
(dp125
g12
S'oblique'
p126
sg14
S'DejaVu Sans Mono'
p127
sg16
I400
sg17
g13
sg18
g13
sg19
S'/usr/share/fonts/truetype/ttf-dejavu/DejaVuSansMono-Oblique.ttf'
p128
sg21
g22
sbag7
(g8
g9
NtRp129
(dp130
g12
g13
sg14
S'Liberation Sans'
p131
sg16
I400
sg17
g13
sg18
g13
sg19
S'/usr/share/fonts/truetype/liberation/LiberationSans-Regular.ttf'
p132
sg21
g22
sbag7
(g8
g9
NtRp133
(dp134
g12
g13
sg14
S'Ubuntu Mono'
p135
sg16
I700
sg17
g13
sg18
g13
sg19
S'/usr/share/fonts/truetype/ubuntu-font-family/UbuntuMono-B.ttf'
p136
sg21
g22
sbag7
(g8
g9
NtRp137
(dp138
g12
g13
sg14
S'Liberation Serif'
p139
sg16
I700
sg17
g13
sg18
g13
sg19
S'/usr/share/fonts/truetype/liberation/LiberationSerif-Bold.ttf'
p140
sg21
g22
sbag7
(g8
g9
NtRp141
(dp142
g12
g29
sg14
S'Liberation Sans'
p143
sg16
I400
sg17
g13
sg18
g13
sg19
S'/usr/share/fonts/truetype/liberation/LiberationSans-Italic.ttf'
p144
sg21
g22
sbag7
(g8
g9
NtRp145
(dp146
g12
g29
sg14
S'Ubuntu'
p147
sg16
I200
sg17
g13
sg18
g13
sg19
S'/usr/share/fonts/truetype/ubuntu-font-family/Ubuntu-LI.ttf'
p148
sg21
g22
sbag7
(g8
g9
NtRp149
(dp150
g12
g13
sg14
S'NanumMyeongjo'
p151
sg16
I700
sg17
g13
sg18
g13
sg19
S'/usr/share/fonts/truetype/nanum/NanumMyeongjoBold.ttf'
p152
sg21
g22
sbag7
(g8
g9
NtRp153
(dp154
g12
g13
sg14
S'DejaVu Sans Mono'
p155
sg16
I700
sg17
g13
sg18
g13
sg19
S'/usr/share/fonts/truetype/ttf-dejavu/DejaVuSansMono-Bold.ttf'
p156
sg21
g22
sbag7
(g8
g9
NtRp157
(dp158
g12
g29
sg14
S'Ubuntu'
p159
sg16
I700
sg17
g13
sg18
g13
sg19
S'/usr/share/fonts/truetype/ubuntu-font-family/Ubuntu-BI.ttf'
p160
sg21
g22
sbag7
(g8
g9
NtRp161
(dp162
g12
g13
sg14
S'NanumGothic'
p163
sg16
I400
sg17
g13
sg18
g13
sg19
S'/usr/share/fonts/truetype/nanum/NanumGothic.ttf'
p164
sg21
g22
sbag7
(g8
g9
NtRp165
(dp166
g12
g13
sg14
S'NanumGothic'
p167
sg16
I700
sg17
g13
sg18
g13
sg19
S'/usr/share/fonts/truetype/nanum/NanumGothicBold.ttf'
p168
sg21
g22
sbag7
(g8
g9
NtRp169
(dp170
g12
g29
sg14
S'rsfs10'
p171
sg16
I400
sg17
g13
sg18
g13
sg19
S'/usr/share/fonts/truetype/ttf-lyx/rsfs10.ttf'
p172
sg21
g22
sbag7
(g8
g9
NtRp173
(dp174
g12
g13
sg14
S'DejaVu Sans'
p175
sg16
I400
sg17
S'condensed'
p176
sg18
g13
sg19
S'/usr/share/fonts/truetype/ttf-dejavu/DejaVuSansCondensed.ttf'
p177
sg21
g22
sbag7
(g8
g9
NtRp178
(dp179
g12
g13
sg14
S'DejaVu Serif'
p180
sg16
I400
sg17
g13
sg18
g13
sg19
S'/usr/share/fonts/truetype/ttf-dejavu/DejaVuSerif.ttf'
p181
sg21
g22
sbag7
(g8
g9
NtRp182
(dp183
g12
g29
sg14
S'FreeSerif'
p184
sg16
I700
sg17
g13
sg18
g13
sg19
S'/usr/share/fonts/truetype/freefont/FreeSerifBoldItalic.ttf'
p185
sg21
g22
sbag7
(g8
g9
NtRp186
(dp187
g12
g126
sg14
S'FreeMono'
p188
sg16
I400
sg17
g13
sg18
g13
sg19
S'/usr/share/fonts/truetype/freefont/FreeMonoOblique.ttf'
p189
sg21
g22
sbag7
(g8
g9
NtRp190
(dp191
g12
g29
sg14
S'Ubuntu Mono'
p192
sg16
I700
sg17
g13
sg18
g13
sg19
S'/usr/share/fonts/truetype/ubuntu-font-family/UbuntuMono-BI.ttf'
p193
sg21
g22
sbag7
(g8
g9
NtRp194
(dp195
g12
g29
sg14
S'DejaVu Serif'
p196
sg16
I700
sg17
g13
sg18
g13
sg19
S'/usr/share/fonts/truetype/ttf-dejavu/DejaVuSerif-BoldItalic.ttf'
p197
sg21
g22
sbag7
(g8
g9
NtRp198
(dp199
g12
g29
sg14
S'Liberation Mono'
p200
sg16
I700
sg17
g13
sg18
g13
sg19
S'/usr/share/fonts/truetype/liberation/LiberationMono-BoldItalic.ttf'
p201
sg21
g22
sbag7
(g8
g9
NtRp202
(dp203
g12
g13
sg14
S'Ubuntu Condensed'
p204
sg16
I400
sg17
g176
sg18
g13
sg19
S'/usr/share/fonts/truetype/ubuntu-font-family/Ubuntu-C.ttf'
p205
sg21
g22
sbag7
(g8
g9
NtRp206
(dp207
g12
g13
sg14
S'esint10'
p208
sg16
I400
sg17
g13
sg18
g13
sg19
S'/usr/share/fonts/truetype/ttf-lyx/esint10.ttf'
p209
sg21
g22
sbag7
(g8
g9
NtRp210
(dp211
g12
g13
sg14
S'DejaVu Sans Mono'
p212
sg16
I400
sg17
g13
sg18
g13
sg19
S'/usr/share/fonts/truetype/ttf-dejavu/DejaVuSansMono.ttf'
p213
sg21
g22
sbag7
(g8
g9
NtRp214
(dp215
g12
g13
sg14
S'FreeSerif'
p216
sg16
I400
sg17
g13
sg18
g13
sg19
S'/usr/share/fonts/truetype/freefont/FreeSerif.ttf'
p217
sg21
g22
sbag7
(g8
g9
NtRp218
(dp219
g12
g13
sg14
S'Liberation Sans Narrow'
p220
sg16
I400
sg17
g176
sg18
g13
sg19
S'/usr/share/fonts/truetype/liberation/LiberationSansNarrow-Regular.ttf'
p221
sg21
g22
sbag7
(g8
g9
NtRp222
(dp223
g12
g126
sg14
S'DejaVu Sans'
p224
sg16
I400
sg17
g176
sg18
g13
sg19
S'/usr/share/fonts/truetype/ttf-dejavu/DejaVuSansCondensed-Oblique.ttf'
p225
sg21
g22
sbag7
(g8
g9
NtRp226
(dp227
g12
g126
sg14
S'DejaVu Sans'
p228
sg16
I400
sg17
g13
sg18
g13
sg19
S'/usr/share/fonts/truetype/ttf-dejavu/DejaVuSans-Oblique.ttf'
p229
sg21
g22
sbag7
(g8
g9
NtRp230
(dp231
g12
g13
sg14
S'DejaVu Serif'
p232
sg16
I700
sg17
g176
sg18
g13
sg19
S'/usr/share/fonts/truetype/ttf-dejavu/DejaVuSerifCondensed-Bold.ttf'
p233
sg21
g22
sbag7
(g8
g9
NtRp234
(dp235
g12
g13
sg14
S'Ubuntu Mono'
p236
sg16
I400
sg17
g13
sg18
g13
sg19
S'/usr/share/fonts/truetype/ubuntu-font-family/UbuntuMono-R.ttf'
p237
sg21
g22
sbag7
(g8
g9
NtRp238
(dp239
g12
g13
sg14
S'FreeSerif'
p240
sg16
I700
sg17
g13
sg18
g13
sg19
S'/usr/share/fonts/truetype/freefont/FreeSerifBold.ttf'
p241
sg21
g22
sbag7
(g8
g9
NtRp242
(dp243
g12
g29
sg14
S'Liberation Sans Narrow'
p244
sg16
I400
sg17
g176
sg18
g13
sg19
S'/usr/share/fonts/truetype/liberation/LiberationSansNarrow-Italic.ttf'
p245
sg21
g22
sbag7
(g8
g9
NtRp246
(dp247
g12
g13
sg14
S'DejaVu Serif'
p248
sg16
I700
sg17
g13
sg18
g13
sg19
S'/usr/share/fonts/truetype/ttf-dejavu/DejaVuSerif-Bold.ttf'
p249
sg21
g22
sbag7
(g8
g9
NtRp250
(dp251
g12
g29
sg14
S'DejaVu Serif'
p252
sg16
I400
sg17
g13
sg18
g13
sg19
S'/usr/share/fonts/truetype/ttf-dejavu/DejaVuSerif-Italic.ttf'
p253
sg21
g22
sbag7
(g8
g9
NtRp254
(dp255
g12
g29
sg14
S'DejaVu Serif'
p256
sg16
I400
sg17
g176
sg18
g13
sg19
S'/usr/share/fonts/truetype/ttf-dejavu/DejaVuSerifCondensed-Italic.ttf'
p257
sg21
g22
sbag7
(g8
g9
NtRp258
(dp259
g12
g13
sg14
S'Liberation Sans Narrow'
p260
sg16
I700
sg17
g176
sg18
g13
sg19
S'/usr/share/fonts/truetype/liberation/LiberationSansNarrow-Bold.ttf'
p261
sg21
g22
sbag7
(g8
g9
NtRp262
(dp263
g12
g126
sg14
S'FreeSans'
p264
sg16
I400
sg17
g13
sg18
g13
sg19
S'/usr/share/fonts/truetype/freefont/FreeSansOblique.ttf'
p265
sg21
g22
sbag7
(g8
g9
NtRp266
(dp267
g12
g13
sg14
S'DejaVu Serif'
p268
sg16
I400
sg17
g176
sg18
g13
sg19
S'/usr/share/fonts/truetype/ttf-dejavu/DejaVuSerifCondensed.ttf'
p269
sg21
g22
sbag7
(g8
g9
NtRp270
(dp271
g12
g13
sg14
S'FreeMono'
p272
sg16
I700
sg17
g13
sg18
g13
sg19
S'/usr/share/fonts/truetype/freefont/FreeMonoBold.ttf'
p273
sg21
g22
sbag7
(g8
g9
NtRp274
(dp275
g12
g29
sg14
S'Liberation Sans'
p276
sg16
I700
sg17
g13
sg18
g13
sg19
S'/usr/share/fonts/truetype/liberation/LiberationSans-BoldItalic.ttf'
p277
sg21
g22
sbag7
(g8
g9
NtRp278
(dp279
g12
g13
sg14
S'Liberation Sans'
p280
sg16
I700
sg17
g13
sg18
g13
sg19
S'/usr/share/fonts/truetype/liberation/LiberationSans-Bold.ttf'
p281
sg21
g22
sbag7
(g8
g9
NtRp282
(dp283
g12
g13
sg14
S'FreeMono'
p284
sg16
I400
sg17
g13
sg18
g13
sg19
S'/usr/share/fonts/truetype/freefont/FreeMono.ttf'
p285
sg21
g22
sbag7
(g8
g9
NtRp286
(dp287
g12
g13
sg14
S'Ubuntu'
p288
sg16
I700
sg17
g13
sg18
g13
sg19
S'/usr/share/fonts/truetype/ubuntu-font-family/Ubuntu-B.ttf'
p289
sg21
g22
sbag7
(g8
g9
NtRp290
(dp291
g12
g126
sg14
S'FreeSans'
p292
sg16
I700
sg17
g13
sg18
g13
sg19
S'/usr/share/fonts/truetype/freefont/FreeSansBoldOblique.ttf'
p293
sg21
g22
sbag7
(g8
g9
NtRp294
(dp295
g12
g13
sg14
S'NanumMyeongjo'
p296
sg16
I400
sg17
g13
sg18
g13
sg19
S'/usr/share/fonts/truetype/nanum/NanumMyeongjo.ttf'
p297
sg21
g22
sbag7
(g8
g9
NtRp298
(dp299
g12
g13
sg14
S'Liberation Mono'
p300
sg16
I400
sg17
g13
sg18
g13
sg19
S'/usr/share/fonts/truetype/liberation/LiberationMono-Regular.ttf'
p301
sg21
g22
sbag7
(g8
g9
NtRp302
(dp303
g12
g13
sg14
S'DejaVu Sans'
p304
sg16
I700
sg17
g13
sg18
g13
sg19
S'/usr/share/fonts/truetype/ttf-dejavu/DejaVuSans-Bold.ttf'
p305
sg21
g22
sbag7
(g8
g9
NtRp306
(dp307
g12
g126
sg14
S'DejaVu Sans Mono'
p308
sg16
I700
sg17
g13
sg18
g13
sg19
S'/usr/share/fonts/truetype/ttf-dejavu/DejaVuSansMono-BoldOblique.ttf'
p309
sg21
g22
sbag7
(g8
g9
NtRp310
(dp311
g12
g29
sg14
S'DejaVu Serif'
p312
sg16
I700
sg17
g176
sg18
g13
sg19
S'/usr/share/fonts/truetype/ttf-dejavu/DejaVuSerifCondensed-BoldItalic.ttf'
p313
sg21
g22
sbag7
(g8
g9
NtRp314
(dp315
g12
g29
sg14
S'Ubuntu'
p316
sg16
I400
sg17
g13
sg18
g13
sg19
S'/usr/share/fonts/truetype/ubuntu-font-family/Ubuntu-RI.ttf'
p317
sg21
g22
sbag7
(g8
g9
NtRp318
(dp319
g12
g126
sg14
S'FreeMono'
p320
sg16
I700
sg17
g13
sg18
g13
sg19
S'/usr/share/fonts/truetype/freefont/FreeMonoBoldOblique.ttf'
p321
sg21
g22
sbag7
(g8
g9
NtRp322
(dp323
g12
g29
sg14
S'Liberation Serif'
p324
sg16
I400
sg17
g13
sg18
g13
sg19
S'/usr/share/fonts/truetype/liberation/LiberationSerif-Italic.ttf'
p325
sg21
g22
sbag7
(g8
g9
NtRp326
(dp327
g12
g13
sg14
S'Ubuntu'
p328
sg16
I400
sg17
g13
sg18
g13
sg19
S'/usr/share/fonts/truetype/ubuntu-font-family/Ubuntu-R.ttf'
p329
sg21
g22
sbag7
(g8
g9
NtRp330
(dp331
g12
g13
sg14
S'FreeSans'
p332
sg16
I700
sg17
g13
sg18
g13
sg19
S'/usr/share/fonts/truetype/freefont/FreeSansBold.ttf'
p333
sg21
g22
sbag7
(g8
g9
NtRp334
(dp335
g12
g13
sg14
S'Liberation Mono'
p336
sg16
I700
sg17
g13
sg18
g13
sg19
S'/usr/share/fonts/truetype/liberation/LiberationMono-Bold.ttf'
p337
sg21
g22
sbag7
(g8
g9
NtRp338
(dp339
g12
g13
sg14
S'eufm10'
p340
sg16
I400
sg17
g13
sg18
g13
sg19
S'/usr/share/fonts/truetype/ttf-lyx/eufm10.ttf'
p341
sg21
g22
sbag7
(g8
g9
NtRp342
(dp343
g12
g13
sg14
S'FreeSans'
p344
sg16
I400
sg17
g13
sg18
g13
sg19
S'/usr/share/fonts/truetype/freefont/FreeSans.ttf'
p345
sg21
g22
sbag7
(g8
g9
NtRp346
(dp347
g12
g126
sg14
S'DejaVu Sans'
p348
sg16
I700
sg17
g13
sg18
g13
sg19
S'/usr/share/fonts/truetype/ttf-dejavu/DejaVuSans-BoldOblique.ttf'
p349
sg21
g22
sbag7
(g8
g9
NtRp350
(dp351
g12
g13
sg14
S'msam10'
p352
sg16
I400
sg17
g13
sg18
g13
sg19
S'/usr/share/fonts/truetype/ttf-lyx/msam10.ttf'
p353
sg21
g22
sbag7
(g8
g9
NtRp354
(dp355
g12
g29
sg14
S'Ubuntu Mono'
p356
sg16
I400
sg17
g13
sg18
g13
sg19
S'/usr/share/fonts/truetype/ubuntu-font-family/UbuntuMono-RI.ttf'
p357
sg21
g22
sbag7
(g8
g9
NtRp358
(dp359
g12
g13
sg14
S'Untitled1'
p360
sg16
I400
sg17
g13
sg18
g13
sg19
S'/usr/share/fonts/truetype/freefont/Untitled1.ttf'
p361
sg21
g22
sbag7
(g8
g9
NtRp362
(dp363
g12
g13
sg14
S'Liberation Serif'
p364
sg16
I400
sg17
g13
sg18
g13
sg19
S'/usr/share/fonts/truetype/liberation/LiberationSerif-Regular.ttf'
p365
sg21
g22
sbag7
(g8
g9
NtRp366
(dp367
g12
g13
sg14
S'wasy10'
p368
sg16
I400
sg17
g13
sg18
g13
sg19
S'/usr/share/fonts/truetype/ttf-lyx/wasy10.ttf'
p369
sg21
g22
sbag7
(g8
g9
NtRp370
(dp371
g12
g29
sg14
S'FreeSerif'
p372
sg16
I400
sg17
g13
sg18
g13
sg19
S'/usr/share/fonts/truetype/freefont/FreeSerifItalic.ttf'
p373
sg21
g22
sbag7
(g8
g9
NtRp374
(dp375
g12
g126
sg14
S'DejaVu Sans'
p376
sg16
I700
sg17
g176
sg18
g13
sg19
S'/usr/share/fonts/truetype/ttf-dejavu/DejaVuSansCondensed-BoldOblique.ttf'
p377
sg21
g22
sbag7
(g8
g9
NtRp378
(dp379
g12
g13
sg14
S'Ubuntu'
p380
sg16
I200
sg17
g13
sg18
g13
sg19
S'/usr/share/fonts/truetype/ubuntu-font-family/Ubuntu-L.ttf'
p381
sg21
g22
sbag7
(g8
g9
NtRp382
(dp383
g12
g13
sg14
S'DejaVu Sans'
p384
sg16
I700
sg17
g176
sg18
g13
sg19
S'/usr/share/fonts/truetype/ttf-dejavu/DejaVuSansCondensed-Bold.ttf'
p385
sg21
g22
sbag7
(g8
g9
NtRp386
(dp387
g12
g29
sg14
S'Liberation Sans Narrow'
p388
sg16
I700
sg17
g176
sg18
g13
sg19
S'/usr/share/fonts/truetype/liberation/LiberationSansNarrow-BoldItalic.ttf'
p389
sg21
g22
sbag7
(g8
g9
NtRp390
(dp391
g12
g13
sg14
S'msbm10'
p392
sg16
I400
sg17
g13
sg18
g13
sg19
S'/usr/share/fonts/truetype/ttf-lyx/msbm10.ttf'
p393
sg21
g22
sbag7
(g8
g9
NtRp394
(dp395
g12
g13
sg14
S'DejaVu Sans'
p396
sg16
I200
sg17
g13
sg18
g13
sg19
S'/usr/share/fonts/truetype/ttf-dejavu/DejaVuSans-ExtraLight.ttf'
p397
sg21
g22
sbag7
(g8
g9
NtRp398
(dp399
g12
g29
sg14
S'Liberation Mono'
p400
sg16
I400
sg17
g13
sg18
g13
sg19
S'/usr/share/fonts/truetype/liberation/LiberationMono-Italic.ttf'
p401
sg21
g22
sbasS'defaultFamily'
p402
(dp403
S'afm'
p404
S'Helvetica'
p405
sS'ttf'
p406
S'Bitstream Vera Sans'
p407
ssS'ttffiles'
p408
(lp409
S'/usr/share/matplotlib/mpl-data/fonts/ttf/cmb10.ttf'
p410
aS'/usr/share/matplotlib/mpl-data/fonts/ttf/cmex10.ttf'
p411
aS'/usr/share/matplotlib/mpl-data/fonts/ttf/STIXNonUniIta.ttf'
p412
aS'/usr/share/matplotlib/mpl-data/fonts/ttf/STIXNonUni.ttf'
p413
aS'/usr/share/matplotlib/mpl-data/fonts/ttf/STIXSizThreeSymReg.ttf'
p414
aS'/usr/share/matplotlib/mpl-data/fonts/ttf/STIXSizTwoSymBol.ttf'
p415
aS'/usr/share/matplotlib/mpl-data/fonts/ttf/STIXSizOneSymReg.ttf'
p416
aS'/usr/share/matplotlib/mpl-data/fonts/ttf/cmtt10.ttf'
p417
aS'/usr/share/matplotlib/mpl-data/fonts/ttf/STIXGeneral.ttf'
p418
aS'/usr/share/matplotlib/mpl-data/fonts/ttf/STIXSizThreeSymBol.ttf'
p419
aS'/usr/share/matplotlib/mpl-data/fonts/ttf/STIXSizFiveSymReg.ttf'
p420
aS'/usr/share/matplotlib/mpl-data/fonts/ttf/STIXSizOneSymBol.ttf'
p421
aS'/usr/share/matplotlib/mpl-data/fonts/ttf/STIXGeneralBol.ttf'
p422
aS'/usr/share/matplotlib/mpl-data/fonts/ttf/cmr10.ttf'
p423
aS'/usr/share/matplotlib/mpl-data/fonts/ttf/STIXSizTwoSymReg.ttf'
p424
aS'/usr/share/matplotlib/mpl-data/fonts/ttf/STIXSizFourSymReg.ttf'
p425
aS'/usr/share/matplotlib/mpl-data/fonts/ttf/cmsy10.ttf'
p426
aS'/usr/share/matplotlib/mpl-data/fonts/ttf/STIXNonUniBolIta.ttf'
p427
aS'/usr/share/matplotlib/mpl-data/fonts/ttf/cmss10.ttf'
p428
aS'/usr/share/matplotlib/mpl-data/fonts/ttf/STIXSizFourSymBol.ttf'
p429
aS'/usr/share/matplotlib/mpl-data/fonts/ttf/STIXGeneralItalic.ttf'
p430
aS'/usr/share/matplotlib/mpl-data/fonts/ttf/cmmi10.ttf'
p431
aS'/usr/share/matplotlib/mpl-data/fonts/ttf/STIXNonUniBol.ttf'
p432
aS'/usr/share/matplotlib/mpl-data/fonts/ttf/STIXGeneralBolIta.ttf'
p433
aS'/usr/share/fonts/truetype/liberation/LiberationSerif-BoldItalic.ttf'
p434
aS'/usr/share/fonts/truetype/ttf-lyx/cmr10.ttf'
p435
aS'/usr/share/fonts/truetype/ttf-dejavu/DejaVuSans.ttf'
p436
aS'/usr/share/fonts/truetype/ttf-dejavu/DejaVuSansMono-Oblique.ttf'
p437
aS'/usr/share/fonts/truetype/liberation/LiberationSans-Regular.ttf'
p438
aS'/usr/share/fonts/truetype/ubuntu-font-family/UbuntuMono-B.ttf'
p439
aS'/usr/share/fonts/truetype/ttf-lyx/cmsy10.ttf'
p440
aS'/usr/share/fonts/truetype/liberation/LiberationSerif-Bold.ttf'
p441
aS'/usr/share/fonts/truetype/liberation/LiberationSans-Italic.ttf'
p442
aS'/usr/share/fonts/truetype/ubuntu-font-family/Ubuntu-LI.ttf'
p443
aS'/usr/share/fonts/truetype/nanum/NanumMyeongjoBold.ttf'
p444
aS'/usr/share/fonts/truetype/ttf-dejavu/DejaVuSansMono-Bold.ttf'
p445
aS'/usr/share/fonts/truetype/ubuntu-font-family/Ubuntu-BI.ttf'
p446
aS'/usr/share/fonts/truetype/nanum/NanumGothic.ttf'
p447
aS'/usr/share/fonts/truetype/nanum/NanumGothicBold.ttf'
p448
aS'/usr/share/fonts/truetype/ttf-lyx/rsfs10.ttf'
p449
aS'/usr/share/fonts/truetype/ttf-dejavu/DejaVuSansCondensed.ttf'
p450
aS'/usr/share/fonts/truetype/ttf-dejavu/DejaVuSerif.ttf'
p451
aS'/usr/share/fonts/truetype/freefont/FreeSerifBoldItalic.ttf'
p452
aS'/usr/share/fonts/truetype/freefont/FreeMonoOblique.ttf'
p453
aS'/usr/share/fonts/truetype/ubuntu-font-family/UbuntuMono-BI.ttf'
p454
aS'/usr/share/fonts/truetype/ttf-dejavu/DejaVuSerif-BoldItalic.ttf'
p455
aS'/usr/share/fonts/truetype/liberation/LiberationMono-BoldItalic.ttf'
p456
aS'/usr/share/fonts/truetype/ubuntu-font-family/Ubuntu-C.ttf'
p457
aS'/usr/share/fonts/truetype/ttf-lyx/esint10.ttf'
p458
aS'/usr/share/fonts/truetype/ttf-dejavu/DejaVuSansMono.ttf'
p459
aS'/usr/share/fonts/truetype/ttf-lyx/cmmi10.ttf'
p460
aS'/usr/share/fonts/truetype/freefont/FreeSerif.ttf'
p461
aS'/usr/share/fonts/truetype/liberation/LiberationSansNarrow-Regular.ttf'
p462
aS'/usr/share/fonts/truetype/ttf-dejavu/DejaVuSansCondensed-Oblique.ttf'
p463
aS'/usr/share/fonts/truetype/ttf-dejavu/DejaVuSans-Oblique.ttf'
p464
aS'/usr/share/fonts/truetype/ttf-dejavu/DejaVuSerifCondensed-Bold.ttf'
p465
aS'/usr/share/fonts/truetype/ubuntu-font-family/UbuntuMono-R.ttf'
p466
aS'/usr/share/fonts/truetype/freefont/FreeSerifBold.ttf'
p467
aS'/usr/share/fonts/truetype/liberation/LiberationSansNarrow-Italic.ttf'
p468
aS'/usr/share/fonts/truetype/ttf-dejavu/DejaVuSerif-Bold.ttf'
p469
aS'/usr/share/fonts/truetype/ttf-dejavu/DejaVuSerif-Italic.ttf'
p470
aS'/usr/share/fonts/truetype/ttf-dejavu/DejaVuSerifCondensed-Italic.ttf'
p471
aS'/usr/share/fonts/truetype/liberation/LiberationSansNarrow-Bold.ttf'
p472
aS'/usr/share/fonts/truetype/freefont/FreeSansOblique.ttf'
p473
aS'/usr/share/fonts/truetype/ttf-dejavu/DejaVuSerifCondensed.ttf'
p474
aS'/usr/share/fonts/truetype/freefont/FreeMonoBold.ttf'
p475
aS'/usr/share/fonts/truetype/liberation/LiberationSans-BoldItalic.ttf'
p476
aS'/usr/share/fonts/truetype/liberation/LiberationSans-Bold.ttf'
p477
aS'/usr/share/fonts/truetype/freefont/FreeMono.ttf'
p478
aS'/usr/share/fonts/truetype/ubuntu-font-family/Ubuntu-B.ttf'
p479
aS'/usr/share/fonts/truetype/freefont/FreeSansBoldOblique.ttf'
p480
aS'/usr/share/fonts/truetype/nanum/NanumMyeongjo.ttf'
p481
aS'/usr/share/fonts/truetype/liberation/LiberationMono-Regular.ttf'
p482
aS'/usr/share/fonts/truetype/ttf-dejavu/DejaVuSans-Bold.ttf'
p483
aS'/usr/share/fonts/truetype/ttf-dejavu/DejaVuSansMono-BoldOblique.ttf'
p484
aS'/usr/share/fonts/truetype/ttf-dejavu/DejaVuSerifCondensed-BoldItalic.ttf'
p485
aS'/usr/share/fonts/truetype/ubuntu-font-family/Ubuntu-RI.ttf'
p486
aS'/usr/share/fonts/truetype/freefont/FreeMonoBoldOblique.ttf'
p487
aS'/usr/share/fonts/truetype/liberation/LiberationSerif-Italic.ttf'
p488
aS'/usr/share/fonts/truetype/ubuntu-font-family/Ubuntu-R.ttf'
p489
aS'/usr/share/fonts/truetype/freefont/FreeSansBold.ttf'
p490
aS'/usr/share/fonts/truetype/liberation/LiberationMono-Bold.ttf'
p491
aS'/usr/share/fonts/truetype/ttf-lyx/eufm10.ttf'
p492
aS'/usr/share/fonts/truetype/freefont/FreeSans.ttf'
p493
aS'/usr/share/fonts/truetype/ttf-dejavu/DejaVuSans-BoldOblique.ttf'
p494
aS'/usr/share/fonts/truetype/ttf-lyx/msam10.ttf'
p495
aS'/usr/share/fonts/truetype/ubuntu-font-family/UbuntuMono-RI.ttf'
p496
aS'/usr/share/fonts/truetype/freefont/Untitled1.ttf'
p497
aS'/usr/share/fonts/truetype/liberation/LiberationSerif-Regular.ttf'
p498
aS'/usr/share/fonts/truetype/ttf-lyx/wasy10.ttf'
p499
aS'/usr/share/fonts/truetype/freefont/FreeSerifItalic.ttf'
p500
aS'/usr/share/fonts/truetype/ttf-dejavu/DejaVuSansCondensed-BoldOblique.ttf'
p501
aS'/usr/share/fonts/truetype/ubuntu-font-family/Ubuntu-L.ttf'
p502
aS'/usr/share/fonts/truetype/ttf-dejavu/DejaVuSansCondensed-Bold.ttf'
p503
aS'/usr/share/fonts/truetype/liberation/LiberationSansNarrow-BoldItalic.ttf'
p504
aS'/usr/share/fonts/truetype/ttf-lyx/msbm10.ttf'
p505
aS'/usr/share/fonts/truetype/ttf-dejavu/DejaVuSans-ExtraLight.ttf'
p506
aS'/usr/share/fonts/truetype/liberation/LiberationMono-Italic.ttf'
p507
aS'/usr/share/fonts/truetype/ttf-lyx/cmex10.ttf'
p508
asS'_FontManager__default_weight'
p509
g13
sS'_version'
p510
I7
sS'ttf_lookup_cache'
p511
(dp512
sS'default_size'
p513
NsS'defaultFont'
p514
(dp515
g404
Nsg406
g410
ssS'afmfiles'
p516
(lp517
S'/usr/share/matplotlib/mpl-data/fonts/afm/pzcmi8a.afm'
p518
aS'/usr/share/matplotlib/mpl-data/fonts/pdfcorefonts/Helvetica.afm'
p519
aS'/usr/share/matplotlib/mpl-data/fonts/afm/phvl8a.afm'
p520
aS'/usr/share/matplotlib/mpl-data/fonts/afm/putbi8a.afm'
p521
aS'/usr/share/matplotlib/mpl-data/fonts/pdfcorefonts/Helvetica-BoldOblique.afm'
p522
aS'/usr/share/matplotlib/mpl-data/fonts/afm/phvro8an.afm'
p523
aS'/usr/share/matplotlib/mpl-data/fonts/afm/pbkd8a.afm'
p524
aS'/usr/share/matplotlib/mpl-data/fonts/afm/pncri8a.afm'
p525
aS'/usr/share/matplotlib/mpl-data/fonts/pdfcorefonts/Helvetica-Bold.afm'
p526
aS'/usr/share/matplotlib/mpl-data/fonts/pdfcorefonts/Times-BoldItalic.afm'
p527
aS'/usr/share/matplotlib/mpl-data/fonts/afm/putr8a.afm'
p528
aS'/usr/share/matplotlib/mpl-data/fonts/afm/pagdo8a.afm'
p529
aS'/usr/share/matplotlib/mpl-data/fonts/afm/putb8a.afm'
p530
aS'/usr/share/matplotlib/mpl-data/fonts/afm/pncb8a.afm'
p531
aS'/usr/share/matplotlib/mpl-data/fonts/pdfcorefonts/Courier-Bold.afm'
p532
aS'/usr/share/matplotlib/mpl-data/fonts/afm/pncbi8a.afm'
p533
aS'/usr/share/matplotlib/mpl-data/fonts/afm/pncr8a.afm'
p534
aS'/usr/share/matplotlib/mpl-data/fonts/afm/cmex10.afm'
p535
aS'/usr/share/matplotlib/mpl-data/fonts/afm/cmtt10.afm'
p536
aS'/usr/share/matplotlib/mpl-data/fonts/pdfcorefonts/Symbol.afm'
p537
aS'/usr/share/matplotlib/mpl-data/fonts/afm/phvr8an.afm'
p538
aS'/usr/share/matplotlib/mpl-data/fonts/afm/phvro8a.afm'
p539
aS'/usr/share/matplotlib/mpl-data/fonts/afm/ptmr8a.afm'
p540
aS'/usr/share/matplotlib/mpl-data/fonts/pdfcorefonts/Helvetica-Oblique.afm'
p541
aS'/usr/share/matplotlib/mpl-data/fonts/afm/pplbi8a.afm'
p542
aS'/usr/share/matplotlib/mpl-data/fonts/afm/cmsy10.afm'
p543
aS'/usr/share/matplotlib/mpl-data/fonts/afm/pagk8a.afm'
p544
aS'/usr/share/matplotlib/mpl-data/fonts/pdfcorefonts/Courier-BoldOblique.afm'
p545
aS'/usr/share/matplotlib/mpl-data/fonts/afm/pcrr8a.afm'
p546
aS'/usr/share/matplotlib/mpl-data/fonts/afm/cmmi10.afm'
p547
aS'/usr/share/matplotlib/mpl-data/fonts/afm/pagko8a.afm'
p548
aS'/usr/share/matplotlib/mpl-data/fonts/afm/phvbo8an.afm'
p549
aS'/usr/share/matplotlib/mpl-data/fonts/afm/phvbo8a.afm'
p550
aS'/usr/share/matplotlib/mpl-data/fonts/afm/cmr10.afm'
p551
aS'/usr/share/matplotlib/mpl-data/fonts/pdfcorefonts/Times-Bold.afm'
p552
aS'/usr/share/matplotlib/mpl-data/fonts/afm/psyr.afm'
p553
aS'/usr/share/matplotlib/mpl-data/fonts/afm/phvlo8a.afm'
p554
aS'/usr/share/matplotlib/mpl-data/fonts/afm/phvb8a.afm'
p555
aS'/usr/share/matplotlib/mpl-data/fonts/afm/pplb8a.afm'
p556
aS'/usr/share/matplotlib/mpl-data/fonts/afm/pzdr.afm'
p557
aS'/usr/share/matplotlib/mpl-data/fonts/afm/ptmri8a.afm'
p558
aS'/usr/share/matplotlib/mpl-data/fonts/afm/pplr8a.afm'
p559
aS'/usr/share/matplotlib/mpl-data/fonts/afm/pbkl8a.afm'
p560
aS'/usr/share/matplotlib/mpl-data/fonts/afm/pcrro8a.afm'
p561
aS'/usr/share/matplotlib/mpl-data/fonts/pdfcorefonts/ZapfDingbats.afm'
p562
aS'/usr/share/matplotlib/mpl-data/fonts/afm/ptmb8a.afm'
p563
aS'/usr/share/matplotlib/mpl-data/fonts/afm/putri8a.afm'
p564
aS'/usr/share/matplotlib/mpl-data/fonts/afm/pplri8a.afm'
p565
aS'/usr/share/matplotlib/mpl-data/fonts/afm/ptmbi8a.afm'
p566
aS'/usr/share/matplotlib/mpl-data/fonts/afm/pbkli8a.afm'
p567
aS'/usr/share/matplotlib/mpl-data/fonts/pdfcorefonts/Courier-Oblique.afm'
p568
aS'/usr/share/matplotlib/mpl-data/fonts/afm/pcrb8a.afm'
p569
aS'/usr/share/matplotlib/mpl-data/fonts/afm/pagd8a.afm'
p570
aS'/usr/share/matplotlib/mpl-data/fonts/afm/pbkdi8a.afm'
p571
aS'/usr/share/matplotlib/mpl-data/fonts/pdfcorefonts/Times-Italic.afm'
p572
aS'/usr/share/matplotlib/mpl-data/fonts/pdfcorefonts/Times-Roman.afm'
p573
aS'/usr/share/matplotlib/mpl-data/fonts/afm/phvb8an.afm'
p574
aS'/usr/share/matplotlib/mpl-data/fonts/pdfcorefonts/Courier.afm'
p575
aS'/usr/share/matplotlib/mpl-data/fonts/afm/phvr8a.afm'
p576
aS'/usr/share/matplotlib/mpl-data/fonts/afm/pcrbo8a.afm'
p577
aS'/usr/share/fonts/type1/gsfonts/n021024l.afm'
p578
aS'/usr/share/fonts/type1/gsfonts/n019024l.afm'
p579
aS'/usr/share/fonts/type1/gsfonts/n021004l.afm'
p580
aS'/usr/share/fonts/X11/Type1/lmtto10.afm'
p581
aS'/usr/share/fonts/X11/Type1/lmtt10.afm'
p582
aS'/usr/share/fonts/X11/Type1/lmvtlo10.afm'
p583
aS'/usr/share/fonts/type1/gsfonts/s050000l.afm'
p584
aS'/usr/share/fonts/type1/gsfonts/d050000l.afm'
p585
aS'/usr/share/fonts/type1/gsfonts/p052004l.afm'
p586
aS'/usr/share/fonts/type1/gsfonts/n019044l.afm'
p587
aS'/usr/share/fonts/X11/Type1/lmssqo8.afm'
p588
aS'/usr/share/fonts/type1/gsfonts/n019064l.afm'
p589
aS'/usr/share/fonts/type1/gsfonts/n022003l.afm'
p590
aS'/usr/share/fonts/X11/Type1/lmssq8.afm'
p591
aS'/usr/share/fonts/type1/gsfonts/b018015l.afm'
p592
aS'/usr/share/fonts/type1/gsfonts/a010033l.afm'
p593
aS'/usr/share/fonts/type1/gsfonts/c059036l.afm'
p594
aS'/usr/share/fonts/type1/gsfonts/z003034l.afm'
p595
aS'/usr/share/fonts/X11/Type1/lmtcsc10.afm'
p596
aS'/usr/share/fonts/type1/gsfonts/n022024l.afm'
p597
aS'/usr/share/fonts/X11/Type1/lmtcso10.afm'
p598
aS'/usr/share/fonts/X11/Type1/lmbxi10.afm'
p599
aS'/usr/share/fonts/type1/gsfonts/n019043l.afm'
p600
aS'/usr/share/fonts/X11/Type1/lmcsco10.afm'
p601
aS'/usr/share/fonts/X11/Type1/lmssbx10.afm'
p602
aS'/usr/share/fonts/X11/Type1/lmvtto10.afm'
p603
aS'/usr/share/fonts/X11/Type1/lmdunh10.afm'
p604
aS'/usr/share/fonts/X11/Type1/lmbx10.afm'
p605
aS'/usr/share/fonts/type1/gsfonts/b018012l.afm'
p606
aS'/usr/share/fonts/type1/gsfonts/n019003l.afm'
p607
aS'/usr/share/fonts/type1/gsfonts/p052024l.afm'
p608
aS'/usr/share/fonts/type1/gsfonts/b018035l.afm'
p609
aS'/usr/share/fonts/X11/Type1/lmvtt10.afm'
p610
aS'/usr/share/fonts/X11/Type1/lmduno10.afm'
p611
aS'/usr/share/fonts/type1/gsfonts/a010013l.afm'
p612
aS'/usr/share/fonts/X11/Type1/lmssdo10.afm'
p613
aS'/usr/share/fonts/type1/gsfonts/n022004l.afm'
p614
aS'/usr/share/fonts/X11/Type1/lmssqbx8.afm'
p615
aS'/usr/share/fonts/X11/Type1/lmss10.afm'
p616
aS'/usr/share/fonts/X11/Type1/lmvtl10.afm'
p617
aS'/usr/share/fonts/X11/Type1/lmssbo10.afm'
p618
aS'/usr/share/fonts/type1/gsfonts/n021003l.afm'
p619
aS'/usr/share/fonts/type1/gsfonts/c059033l.afm'
p620
aS'/usr/share/fonts/X11/Type1/lmssdc10.afm'
p621
aS'/usr/share/fonts/X11/Type1/lmcsc10.afm'
p622
aS'/usr/share/fonts/type1/gsfonts/n019023l.afm'
p623
aS'/usr/share/fonts/X11/Type1/lmb10.afm'
p624
aS'/usr/share/fonts/X11/Type1/lmvtko10.afm'
p625
aS'/usr/share/fonts/X11/Type1/lmtti10.afm'
p626
aS'/usr/share/fonts/X11/Type1/lmbo10.afm'
p627
aS'/usr/share/fonts/type1/gsfonts/p052023l.afm'
p628
aS'/usr/share/fonts/X11/Type1/lmri10.afm'
p629
aS'/usr/share/fonts/type1/gsfonts/n019004l.afm'
p630
aS'/usr/share/fonts/X11/Type1/lmssqbo8.afm'
p631
aS'/usr/share/fonts/type1/gsfonts/p052003l.afm'
p632
aS'/usr/share/fonts/X11/Type1/lmr10.afm'
p633
aS'/usr/share/fonts/type1/gsfonts/a010015l.afm'
p634
aS'/usr/share/fonts/X11/Type1/lmro10.afm'
p635
aS'/usr/share/fonts/X11/Type1/lmtk10.afm'
p636
aS'/usr/share/fonts/type1/gsfonts/c059013l.afm'
p637
aS'/usr/share/fonts/type1/gsfonts/b018032l.afm'
p638
aS'/usr/share/fonts/X11/Type1/lmvtk10.afm'
p639
aS'/usr/share/fonts/type1/gsfonts/c059016l.afm'
p640
aS'/usr/share/fonts/X11/Type1/lmtko10.afm'
p641
aS'/usr/share/fonts/type1/gsfonts/n022023l.afm'
p642
aS'/usr/share/fonts/X11/Type1/lmtlc10.afm'
p643
aS'/usr/share/fonts/type1/gsfonts/n021023l.afm'
p644
aS'/usr/share/fonts/X11/Type1/lmtlo10.afm'
p645
aS'/usr/share/fonts/X11/Type1/lmtl10.afm'
p646
aS'/usr/share/fonts/type1/gsfonts/a010035l.afm'
p647
aS'/usr/share/fonts/X11/Type1/lmsso10.afm'
p648
aS'/usr/share/fonts/type1/gsfonts/n019063l.afm'
p649
aS'/usr/share/fonts/X11/Type1/lmu10.afm'
p650
aS'/usr/share/fonts/X11/Type1/lmtlco10.afm'
p651
aS'/usr/share/fonts/X11/Type1/lmbxo10.afm'
p652
asS'afmlist'
p653
(lp654
g7
(g8
g9
NtRp655
(dp656
g12
g29
sg14
S'ITC Zapf Chancery'
p657
sg16
I500
sg17
g13
sg18
g13
sg19
g518
sg21
g22
sbag7
(g8
g9
NtRp658
(dp659
g12
g13
sg14
S'Helvetica'
p660
sg16
I500
sg17
g13
sg18
g13
sg19
g519
sg21
g22
sbag7
(g8
g9
NtRp661
(dp662
g12
g13
sg14
S'Helvetica'
p663
sg16
I200
sg17
g13
sg18
g13
sg19
g520
sg21
g22
sbag7
(g8
g9
NtRp664
(dp665
g12
g29
sg14
S'Utopia'
p666
sg16
I700
sg17
g13
sg18
g13
sg19
g521
sg21
g22
sbag7
(g8
g9
NtRp667
(dp668
g12
g29
sg14
S'Helvetica'
p669
sg16
I700
sg17
g13
sg18
g13
sg19
g522
sg21
g22
sbag7
(g8
g9
NtRp670
(dp671
g12
g29
sg14
S'Helvetica'
p672
sg16
I500
sg17
g176
sg18
g13
sg19
g523
sg21
g22
sbag7
(g8
g9
NtRp673
(dp674
g12
g13
sg14
S'ITC Bookman'
p675
sg16
I600
sg17
g13
sg18
g13
sg19
g524
sg21
g22
sbag7
(g8
g9
NtRp676
(dp677
g12
g29
sg14
S'New Century Schoolbook'
p678
sg16
I500
sg17
g13
sg18
g13
sg19
g525
sg21
g22
sbag7
(g8
g9
NtRp679
(dp680
g12
g13
sg14
S'Helvetica'
p681
sg16
I700
sg17
g13
sg18
g13
sg19
g526
sg21
g22
sbag7
(g8
g9
NtRp682
(dp683
g12
g29
sg14
S'Times'
p684
sg16
I700
sg17
g13
sg18
g13
sg19
g527
sg21
g22
sbag7
(g8
g9
NtRp685
(dp686
g12
g13
sg14
S'Utopia'
p687
sg16
I400
sg17
g13
sg18
g13
sg19
g528
sg21
g22
sbag7
(g8
g9
NtRp688
(dp689
g12
g29
sg14
S'ITC Avant Garde Gothic'
p690
sg16
I600
sg17
g13
sg18
g13
sg19
g529
sg21
g22
sbag7
(g8
g9
NtRp691
(dp692
g12
g13
sg14
S'Utopia'
p693
sg16
I700
sg17
g13
sg18
g13
sg19
g530
sg21
g22
sbag7
(g8
g9
NtRp694
(dp695
g12
g13
sg14
S'New Century Schoolbook'
p696
sg16
I700
sg17
g13
sg18
g13
sg19
g531
sg21
g22
sbag7
(g8
g9
NtRp697
(dp698
g12
g13
sg14
S'Courier'
p699
sg16
I700
sg17
g13
sg18
g13
sg19
g532
sg21
g22
sbag7
(g8
g9
NtRp700
(dp701
g12
g29
sg14
S'New Century Schoolbook'
p702
sg16
I700
sg17
g13
sg18
g13
sg19
g533
sg21
g22
sbag7
(g8
g9
NtRp703
(dp704
g12
g13
sg14
S'New Century Schoolbook'
p705
sg16
I500
sg17
g13
sg18
g13
sg19
g534
sg21
g22
sbag7
(g8
g9
NtRp706
(dp707
g12
g13
sg14
S'Computer Modern'
p708
sg16
I500
sg17
g13
sg18
g13
sg19
g535
sg21
g22
sbag7
(g8
g9
NtRp709
(dp710
g12
g13
sg14
S'Computer Modern'
p711
sg16
I500
sg17
g13
sg18
g13
sg19
g536
sg21
g22
sbag7
(g8
g9
NtRp712
(dp713
g12
g13
sg14
S'Symbol'
p714
sg16
I500
sg17
g13
sg18
g13
sg19
g537
sg21
g22
sbag7
(g8
g9
NtRp715
(dp716
g12
g13
sg14
S'Helvetica'
p717
sg16
I500
sg17
g176
sg18
g13
sg19
g538
sg21
g22
sbag7
(g8
g9
NtRp718
(dp719
g12
g29
sg14
S'Helvetica'
p720
sg16
I500
sg17
g13
sg18
g13
sg19
g539
sg21
g22
sbag7
(g8
g9
NtRp721
(dp722
g12
g13
sg14
S'Times'
p723
sg16
I500
sg17
g13
sg18
g13
sg19
g540
sg21
g22
sbag7
(g8
g9
NtRp724
(dp725
g12
g29
sg14
S'Helvetica'
p726
sg16
I500
sg17
g13
sg18
g13
sg19
g541
sg21
g22
sbag7
(g8
g9
NtRp727
(dp728
g12
g29
sg14
S'Palatino'
p729
sg16
I700
sg17
g13
sg18
g13
sg19
g542
sg21
g22
sbag7
(g8
g9
NtRp730
(dp731
g12
g29
sg14
S'Computer Modern'
p732
sg16
I500
sg17
g13
sg18
g13
sg19
g543
sg21
g22
sbag7
(g8
g9
NtRp733
(dp734
g12
g13
sg14
S'ITC Avant Garde Gothic'
p735
sg16
I400
sg17
g13
sg18
g13
sg19
g544
sg21
g22
sbag7
(g8
g9
NtRp736
(dp737
g12
g29
sg14
S'Courier'
p738
sg16
I700
sg17
g13
sg18
g13
sg19
g545
sg21
g22
sbag7
(g8
g9
NtRp739
(dp740
g12
g13
sg14
S'Courier'
p741
sg16
I500
sg17
g13
sg18
g13
sg19
g546
sg21
g22
sbag7
(g8
g9
NtRp742
(dp743
g12
g29
sg14
S'Computer Modern'
p744
sg16
I500
sg17
g13
sg18
g13
sg19
g547
sg21
g22
sbag7
(g8
g9
NtRp745
(dp746
g12
g29
sg14
S'ITC Avant Garde Gothic'
p747
sg16
I400
sg17
g13
sg18
g13
sg19
g548
sg21
g22
sbag7
(g8
g9
NtRp748
(dp749
g12
g29
sg14
S'Helvetica'
p750
sg16
I700
sg17
g176
sg18
g13
sg19
g549
sg21
g22
sbag7
(g8
g9
NtRp751
(dp752
g12
g29
sg14
S'Helvetica'
p753
sg16
I700
sg17
g13
sg18
g13
sg19
g550
sg21
g22
sbag7
(g8
g9
NtRp754
(dp755
g12
g13
sg14
S'Computer Modern'
p756
sg16
I500
sg17
g13
sg18
g13
sg19
g551
sg21
g22
sbag7
(g8
g9
NtRp757
(dp758
g12
g13
sg14
S'Times'
p759
sg16
I700
sg17
g13
sg18
g13
sg19
g552
sg21
g22
sbag7
(g8
g9
NtRp760
(dp761
g12
g13
sg14
S'Symbol'
p762
sg16
I500
sg17
g13
sg18
g13
sg19
g553
sg21
g22
sbag7
(g8
g9
NtRp763
(dp764
g12
g29
sg14
S'Helvetica'
p765
sg16
I200
sg17
g13
sg18
g13
sg19
g554
sg21
g22
sbag7
(g8
g9
NtRp766
(dp767
g12
g13
sg14
S'Helvetica'
p768
sg16
I700
sg17
g13
sg18
g13
sg19
g555
sg21
g22
sbag7
(g8
g9
NtRp769
(dp770
g12
g13
sg14
S'Palatino'
p771
sg16
I700
sg17
g13
sg18
g13
sg19
g556
sg21
g22
sbag7
(g8
g9
NtRp772
(dp773
g12
g13
sg14
S'ITC Zapf Dingbats'
p774
sg16
I500
sg17
g13
sg18
g13
sg19
g557
sg21
g22
sbag7
(g8
g9
NtRp775
(dp776
g12
g29
sg14
S'Times'
p777
sg16
I500
sg17
g13
sg18
g13
sg19
g558
sg21
g22
sbag7
(g8
g9
NtRp778
(dp779
g12
g13
sg14
S'Palatino'
p780
sg16
I500
sg17
g13
sg18
g13
sg19
g559
sg21
g22
sbag7
(g8
g9
NtRp781
(dp782
g12
g13
sg14
S'ITC Bookman'
p783
sg16
I200
sg17
g13
sg18
g13
sg19
g560
sg21
g22
sbag7
(g8
g9
NtRp784
(dp785
g12
g29
sg14
S'Courier'
p786
sg16
I500
sg17
g13
sg18
g13
sg19
g561
sg21
g22
sbag7
(g8
g9
NtRp787
(dp788
g12
g13
sg14
S'ZapfDingbats'
p789
sg16
I500
sg17
g13
sg18
g13
sg19
g562
sg21
g22
sbag7
(g8
g9
NtRp790
(dp791
g12
g13
sg14
S'Times'
p792
sg16
I700
sg17
g13
sg18
g13
sg19
g563
sg21
g22
sbag7
(g8
g9
NtRp793
(dp794
g12
g29
sg14
S'Utopia'
p795
sg16
I400
sg17
g13
sg18
g13
sg19
g564
sg21
g22
sbag7
(g8
g9
NtRp796
(dp797
g12
g29
sg14
S'Palatino'
p798
sg16
I500
sg17
g13
sg18
g13
sg19
g565
sg21
g22
sbag7
(g8
g9
NtRp799
(dp800
g12
g29
sg14
S'Times'
p801
sg16
I700
sg17
g13
sg18
g13
sg19
g566
sg21
g22
sbag7
(g8
g9
NtRp802
(dp803
g12
g29
sg14
S'ITC Bookman'
p804
sg16
I200
sg17
g13
sg18
g13
sg19
g567
sg21
g22
sbag7
(g8
g9
NtRp805
(dp806
g12
g29
sg14
S'Courier'
p807
sg16
I500
sg17
g13
sg18
g13
sg19
g568
sg21
g22
sbag7
(g8
g9
NtRp808
(dp809
g12
g13
sg14
S'Courier'
p810
sg16
I700
sg17
g13
sg18
g13
sg19
g569
sg21
g22
sbag7
(g8
g9
NtRp811
(dp812
g12
g13
sg14
S'ITC Avant Garde Gothic'
p813
sg16
I600
sg17
g13
sg18
g13
sg19
g570
sg21
g22
sbag7
(g8
g9
NtRp814
(dp815
g12
g29
sg14
S'ITC Bookman'
p816
sg16
I600
sg17
g13
sg18
g13
sg19
g571
sg21
g22
sbag7
(g8
g9
NtRp817
(dp818
g12
g29
sg14
S'Times'
p819
sg16
I500
sg17
g13
sg18
g13
sg19
g572
sg21
g22
sbag7
(g8
g9
NtRp820
(dp821
g12
g13
sg14
S'Times'
p822
sg16
I500
sg17
g13
sg18
g13
sg19
g573
sg21
g22
sbag7
(g8
g9
NtRp823
(dp824
g12
g13
sg14
S'Helvetica'
p825
sg16
I700
sg17
g176
sg18
g13
sg19
g574
sg21
g22
sbag7
(g8
g9
NtRp826
(dp827
g12
g13
sg14
S'Courier'
p828
sg16
I500
sg17
g13
sg18
g13
sg19
g575
sg21
g22
sbag7
(g8
g9
NtRp829
(dp830
g12
g13
sg14
S'Helvetica'
p831
sg16
I500
sg17
g13
sg18
g13
sg19
g576
sg21
g22
sbag7
(g8
g9
NtRp832
(dp833
g12
g29
sg14
S'Courier'
p834
sg16
I700
sg17
g13
sg18
g13
sg19
g577
sg21
g22
sbag7
(g8
g9
NtRp835
(dp836
g12
g29
sg14
S'Nimbus Roman No9 L'
p837
sg16
I700
sg17
g13
sg18
g13
sg19
g578
sg21
g22
sbag7
(g8
g9
NtRp838
(dp839
g12
g29
sg14
S'Nimbus Sans L'
p840
sg16
I700
sg17
g13
sg18
g13
sg19
g579
sg21
g22
sbag7
(g8
g9
NtRp841
(dp842
g12
g13
sg14
S'Nimbus Roman No9 L'
p843
sg16
I700
sg17
g13
sg18
g13
sg19
g580
sg21
g22
sbag7
(g8
g9
NtRp844
(dp845
g12
g29
sg14
S'LMMonoSlant10'
p846
sg16
I400
sg17
g13
sg18
g13
sg19
g581
sg21
g22
sbag7
(g8
g9
NtRp847
(dp848
g12
g13
sg14
S'LMMono10'
p849
sg16
I400
sg17
g13
sg18
g13
sg19
g582
sg21
g22
sbag7
(g8
g9
NtRp850
(dp851
g12
g29
sg14
S'LMMonoPropLt10'
p852
sg16
I200
sg17
g13
sg18
g13
sg19
g583
sg21
g22
sbag7
(g8
g9
NtRp853
(dp854
g12
g13
sg14
S'Standard Symbols L'
p855
sg16
I400
sg17
g13
sg18
g13
sg19
g584
sg21
g22
sbag7
(g8
g9
NtRp856
(dp857
g12
g13
sg14
S'Dingbats'
p858
sg16
I400
sg17
g13
sg18
g13
sg19
g585
sg21
g22
sbag7
(g8
g9
NtRp859
(dp860
g12
g13
sg14
S'URW Palladio L'
p861
sg16
I700
sg17
g13
sg18
g13
sg19
g586
sg21
g22
sbag7
(g8
g9
NtRp862
(dp863
g12
g13
sg14
S'Nimbus Sans L'
p864
sg16
I700
sg17
g176
sg18
g13
sg19
g587
sg21
g22
sbag7
(g8
g9
NtRp865
(dp866
g12
g29
sg14
S'LMSansQuot8'
p867
sg16
I400
sg17
g13
sg18
g13
sg19
g588
sg21
g22
sbag7
(g8
g9
NtRp868
(dp869
g12
g29
sg14
S'Nimbus Sans L'
p870
sg16
I700
sg17
g176
sg18
g13
sg19
g589
sg21
g22
sbag7
(g8
g9
NtRp871
(dp872
g12
g13
sg14
S'Nimbus Mono L'
p873
sg16
I400
sg17
g13
sg18
g13
sg19
g590
sg21
g22
sbag7
(g8
g9
NtRp874
(dp875
g12
g13
sg14
S'LMSansQuot8'
p876
sg16
I400
sg17
g13
sg18
g13
sg19
g591
sg21
g22
sbag7
(g8
g9
NtRp877
(dp878
g12
g13
sg14
S'URW Bookman L'
p879
sg16
I700
sg17
g13
sg18
g13
sg19
g592
sg21
g22
sbag7
(g8
g9
NtRp880
(dp881
g12
g29
sg14
S'URW Gothic L'
p882
sg16
I400
sg17
g13
sg18
g13
sg19
g593
sg21
g22
sbag7
(g8
g9
NtRp883
(dp884
g12
g29
sg14
S'Century Schoolbook L'
p885
sg16
I700
sg17
g13
sg18
g13
sg19
g594
sg21
g22
sbag7
(g8
g9
NtRp886
(dp887
g12
g29
sg14
S'URW Chancery L'
p888
sg16
I500
sg17
g13
sg18
g13
sg19
g595
sg21
g22
sbag7
(g8
g9
NtRp889
(dp890
g12
g13
sg14
S'LMMonoCaps10'
p891
sg16
I400
sg17
g13
sg18
g13
sg19
g596
sg21
g22
sbag7
(g8
g9
NtRp892
(dp893
g12
g29
sg14
S'Nimbus Mono L'
p894
sg16
I700
sg17
g13
sg18
g13
sg19
g597
sg21
g22
sbag7
(g8
g9
NtRp895
(dp896
g12
g29
sg14
S'LMMonoCaps10'
p897
sg16
I400
sg17
g13
sg18
g13
sg19
g598
sg21
g22
sbag7
(g8
g9
NtRp898
(dp899
g12
g29
sg14
S'LMRoman10'
p900
sg16
I700
sg17
g13
sg18
g13
sg19
g599
sg21
g22
sbag7
(g8
g9
NtRp901
(dp902
g12
g13
sg14
S'Nimbus Sans L'
p903
sg16
I400
sg17
g176
sg18
g13
sg19
g600
sg21
g22
sbag7
(g8
g9
NtRp904
(dp905
g12
g29
sg14
S'LMRomanCaps10'
p906
sg16
I400
sg17
g13
sg18
g13
sg19
g601
sg21
g22
sbag7
(g8
g9
NtRp907
(dp908
g12
g13
sg14
S'LMSans10'
p909
sg16
I700
sg17
g13
sg18
g13
sg19
g602
sg21
g22
sbag7
(g8
g9
NtRp910
(dp911
g12
g29
sg14
S'LMMonoProp10'
p912
sg16
I400
sg17
g13
sg18
g13
sg19
g603
sg21
g22
sbag7
(g8
g9
NtRp913
(dp914
g12
g13
sg14
S'LMRomanDunh10'
p915
sg16
I400
sg17
g13
sg18
g13
sg19
g604
sg21
g22
sbag7
(g8
g9
NtRp916
(dp917
g12
g13
sg14
S'LMRoman10'
p918
sg16
I700
sg17
g13
sg18
g13
sg19
g605
sg21
g22
sbag7
(g8
g9
NtRp919
(dp920
g12
g13
sg14
S'URW Bookman L'
p921
sg16
I400
sg17
g13
sg18
g13
sg19
g606
sg21
g22
sbag7
(g8
g9
NtRp922
(dp923
g12
g13
sg14
S'Nimbus Sans L'
p924
sg16
I400
sg17
g13
sg18
g13
sg19
g607
sg21
g22
sbag7
(g8
g9
NtRp925
(dp926
g12
g29
sg14
S'URW Palladio L'
p927
sg16
I700
sg17
g13
sg18
g13
sg19
g608
sg21
g22
sbag7
(g8
g9
NtRp928
(dp929
g12
g29
sg14
S'URW Bookman L'
p930
sg16
I700
sg17
g13
sg18
g13
sg19
g609
sg21
g22
sbag7
(g8
g9
NtRp931
(dp932
g12
g13
sg14
S'LMMonoProp10'
p933
sg16
I400
sg17
g13
sg18
g13
sg19
g610
sg21
g22
sbag7
(g8
g9
NtRp934
(dp935
g12
g29
sg14
S'LMRomanDunh10'
p936
sg16
I400
sg17
g13
sg18
g13
sg19
g611
sg21
g22
sbag7
(g8
g9
NtRp937
(dp938
g12
g13
sg14
S'URW Gothic L'
p939
sg16
I400
sg17
g13
sg18
g13
sg19
g612
sg21
g22
sbag7
(g8
g9
NtRp940
(dp941
g12
g29
sg14
S'LMSansDemiCond10'
p942
sg16
I600
sg17
g176
sg18
g13
sg19
g613
sg21
g22
sbag7
(g8
g9
NtRp943
(dp944
g12
g13
sg14
S'Nimbus Mono L'
p945
sg16
I700
sg17
g13
sg18
g13
sg19
g614
sg21
g22
sbag7
(g8
g9
NtRp946
(dp947
g12
g13
sg14
S'LMSansQuot8'
p948
sg16
I700
sg17
g13
sg18
g13
sg19
g615
sg21
g22
sbag7
(g8
g9
NtRp949
(dp950
g12
g13
sg14
S'LMSans10'
p951
sg16
I400
sg17
g13
sg18
g13
sg19
g616
sg21
g22
sbag7
(g8
g9
NtRp952
(dp953
g12
g13
sg14
S'LMMonoPropLt10'
p954
sg16
I200
sg17
g13
sg18
g13
sg19
g617
sg21
g22
sbag7
(g8
g9
NtRp955
(dp956
g12
g29
sg14
S'LMSans10'
p957
sg16
I700
sg17
g13
sg18
g13
sg19
g618
sg21
g22
sbag7
(g8
g9
NtRp958
(dp959
g12
g13
sg14
S'Nimbus Roman No9 L'
p960
sg16
I400
sg17
g13
sg18
g13
sg19
g619
sg21
g22
sbag7
(g8
g9
NtRp961
(dp962
g12
g29
sg14
S'Century Schoolbook L'
p963
sg16
I400
sg17
g13
sg18
g13
sg19
g620
sg21
g22
sbag7
(g8
g9
NtRp964
(dp965
g12
g13
sg14
S'LMSansDemiCond10'
p966
sg16
I600
sg17
g176
sg18
g13
sg19
g621
sg21
g22
sbag7
(g8
g9
NtRp967
(dp968
g12
g13
sg14
S'LMRomanCaps10'
p969
sg16
I400
sg17
g13
sg18
g13
sg19
g622
sg21
g22
sbag7
(g8
g9
NtRp970
(dp971
g12
g29
sg14
S'Nimbus Sans L'
p972
sg16
I400
sg17
g13
sg18
g13
sg19
g623
sg21
g22
sbag7
(g8
g9
NtRp973
(dp974
g12
g13
sg14
S'LMRomanDemi10'
p975
sg16
I600
sg17
g13
sg18
g13
sg19
g624
sg21
g22
sbag7
(g8
g9
NtRp976
(dp977
g12
g29
sg14
S'LMMonoPropLt10'
p978
sg16
I700
sg17
g13
sg18
g13
sg19
g625
sg21
g22
sbag7
(g8
g9
NtRp979
(dp980
g12
g29
sg14
S'LMMono10'
p981
sg16
I400
sg17
g13
sg18
g13
sg19
g626
sg21
g22
sbag7
(g8
g9
NtRp982
(dp983
g12
g29
sg14
S'LMRomanDemi10'
p984
sg16
I600
sg17
g13
sg18
g13
sg19
g627
sg21
g22
sbag7
(g8
g9
NtRp985
(dp986
g12
g29
sg14
S'URW Palladio L'
p987
sg16
I400
sg17
g13
sg18
g13
sg19
g628
sg21
g22
sbag7
(g8
g9
NtRp988
(dp989
g12
g29
sg14
S'LMRoman10'
p990
sg16
I400
sg17
g13
sg18
g13
sg19
g629
sg21
g22
sbag7
(g8
g9
NtRp991
(dp992
g12
g13
sg14
S'Nimbus Sans L'
p993
sg16
I700
sg17
g13
sg18
g13
sg19
g630
sg21
g22
sbag7
(g8
g9
NtRp994
(dp995
g12
g29
sg14
S'LMSansQuot8'
p996
sg16
I700
sg17
g13
sg18
g13
sg19
g631
sg21
g22
sbag7
(g8
g9
NtRp997
(dp998
g12
g13
sg14
S'URW Palladio L'
p999
sg16
I500
sg17
g13
sg18
g13
sg19
g632
sg21
g22
sbag7
(g8
g9
NtRp1000
(dp1001
g12
g13
sg14
S'LMRoman10'
p1002
sg16
I400
sg17
g13
sg18
g13
sg19
g633
sg21
g22
sbag7
(g8
g9
NtRp1003
(dp1004
g12
g13
sg14
S'URW Gothic L'
p1005
sg16
I600
sg17
g13
sg18
g13
sg19
g634
sg21
g22
sbag7
(g8
g9
NtRp1006
(dp1007
g12
g29
sg14
S'LMRomanSlant10'
p1008
sg16
I400
sg17
g13
sg18
g13
sg19
g635
sg21
g22
sbag7
(g8
g9
NtRp1009
(dp1010
g12
g13
sg14
S'LMMonoLt10'
p1011
sg16
I700
sg17
g13
sg18
g13
sg19
g636
sg21
g22
sbag7
(g8
g9
NtRp1012
(dp1013
g12
g13
sg14
S'Century Schoolbook L'
p1014
sg16
I500
sg17
g13
sg18
g13
sg19
g637
sg21
g22
sbag7
(g8
g9
NtRp1015
(dp1016
g12
g29
sg14
S'URW Bookman L'
p1017
sg16
I400
sg17
g13
sg18
g13
sg19
g638
sg21
g22
sbag7
(g8
g9
NtRp1018
(dp1019
g12
g13
sg14
S'LMMonoPropLt10'
p1020
sg16
I700
sg17
g13
sg18
g13
sg19
g639
sg21
g22
sbag7
(g8
g9
NtRp1021
(dp1022
g12
g13
sg14
S'Century Schoolbook L'
p1023
sg16
I700
sg17
g13
sg18
g13
sg19
g640
sg21
g22
sbag7
(g8
g9
NtRp1024
(dp1025
g12
g29
sg14
S'LMMonoLt10'
p1026
sg16
I700
sg17
g13
sg18
g13
sg19
g641
sg21
g22
sbag7
(g8
g9
NtRp1027
(dp1028
g12
g29
sg14
S'Nimbus Mono L'
p1029
sg16
I400
sg17
g13
sg18
g13
sg19
g642
sg21
g22
sbag7
(g8
g9
NtRp1030
(dp1031
g12
g13
sg14
S'LMMonoLtCond10'
p1032
sg16
I200
sg17
g176
sg18
g13
sg19
g643
sg21
g22
sbag7
(g8
g9
NtRp1033
(dp1034
g12
g29
sg14
S'Nimbus Roman No9 L'
p1035
sg16
I400
sg17
g13
sg18
g13
sg19
g644
sg21
g22
sbag7
(g8
g9
NtRp1036
(dp1037
g12
g29
sg14
S'LMMonoLt10'
p1038
sg16
I200
sg17
g13
sg18
g13
sg19
g645
sg21
g22
sbag7
(g8
g9
NtRp1039
(dp1040
g12
g13
sg14
S'LMMonoLt10'
p1041
sg16
I200
sg17
g13
sg18
g13
sg19
g646
sg21
g22
sbag7
(g8
g9
NtRp1042
(dp1043
g12
g29
sg14
S'URW Gothic L'
p1044
sg16
I600
sg17
g13
sg18
g13
sg19
g647
sg21
g22
sbag7
(g8
g9
NtRp1045
(dp1046
g12
g29
sg14
S'LMSans10'
p1047
sg16
I400
sg17
g13
sg18
g13
sg19
g648
sg21
g22
sbag7
(g8
g9
NtRp1048
(dp1049
g12
g29
sg14
S'Nimbus Sans L'
p1050
sg16
I400
sg17
g176
sg18
g13
sg19
g649
sg21
g22
sbag7
(g8
g9
NtRp1051
(dp1052
g12
g13
sg14
S'LMRomanUnsl10'
p1053
sg16
I400
sg17
g13
sg18
g13
sg19
g650
sg21
g22
sbag7
(g8
g9
NtRp1054
(dp1055
g12
g29
sg14
S'LMMonoLtCond10'
p1056
sg16
I200
sg17
g176
sg18
g13
sg19
g651
sg21
g22
sbag7
(g8
g9
NtRp1057
(dp1058
g12
g29
sg14
S'LMRomanSlant10'
p1059
sg16
I700
sg17
g13
sg18
g13
sg19
g652
sg21
g22
sbasb.